target datalayout = "e-m:e-p270:32:32-p271:32:32-p272:64:64-i64:64-i128:128-f80:128-n8:16:32:64-S128"
target triple = "x86_64-pc-linux-gnu"

%struct.wtap = type { ptr, ptr, i8, i32, i32, ptr, ptr, ptr, i32, ptr, ptr, ptr, ptr, ptr, ptr, ptr, ptr, ptr, ptr, i32, i32, ptr, ptr, ptr, ptr }
%struct.t_5VW_TimeStamped_Header = type { i32, i16, i16, i32, i32, i32, i32, i32, i32, i32 }
%struct.wtap_rec = type { i32, i32, i32, %struct.nstime_t, i32, %struct.nstime_t, i8, %union.anon, ptr, i8, %struct.Buffer, %struct.Buffer }
%struct.nstime_t = type { i64, i32 }
%union.anon = type { %struct.wtap_packet_header }
%struct.wtap_packet_header = type { i32, i32, i32, i32, %union.wtap_pseudo_header }
%union.wtap_pseudo_header = type { %struct.erf_mc_phdr }
%struct.erf_mc_phdr = type { %struct.erf_phdr, [16 x %struct.erf_ehdr], %union.anon.1 }
%struct.erf_phdr = type { i64, i8, i8, i16, i16, i16 }
%struct.erf_ehdr = type { i64 }
%union.anon.1 = type { i32 }
%struct.Buffer = type { ptr, i64, i64, i64 }
%struct.eth_phdr = type { i32 }

@.str.5 = private unnamed_addr constant [53 x i8] c"5views: Time-stamped header has bad key value 0x%08X\00", align 1

; Function Attrs: inlinehint nounwind null_pointer_is_valid sspstrong uwtable
define internal i32 @pletoh32(ptr noundef %0) #3 {
  %2 = alloca ptr, align 8
  store ptr %0, ptr %2, align 8
  %3 = load ptr, ptr %2, align 8
  %4 = getelementptr i8, ptr %3, i64 3
  %5 = load i8, ptr %4, align 1
  %6 = zext i8 %5 to i32
  %7 = shl i32 %6, 24
  %8 = load ptr, ptr %2, align 8
  %9 = getelementptr i8, ptr %8, i64 2
  %10 = load i8, ptr %9, align 1
  %11 = zext i8 %10 to i32
  %12 = shl i32 %11, 16
  %13 = or i32 %7, %12
  %14 = load ptr, ptr %2, align 8
  %15 = getelementptr i8, ptr %14, i64 1
  %16 = load i8, ptr %15, align 1
  %17 = zext i8 %16 to i32
  %18 = shl i32 %17, 8
  %19 = or i32 %13, %18
  %20 = load ptr, ptr %2, align 8
  %21 = getelementptr i8, ptr %20, i64 0
  %22 = load i8, ptr %21, align 1
  %23 = zext i8 %22 to i32
  %24 = shl i32 %23, 0
  %25 = or i32 %19, %24
  ret i32 %25
}

; Function Attrs: null_pointer_is_valid sspstrong uwtable
define internal zeroext i1 @_5views_read_header(ptr noundef %0, ptr noundef %1, ptr noundef %2, ptr noundef %3, ptr noundef %4, ptr noundef %5) #0 {
  %7 = alloca i1, align 1
  %8 = alloca ptr, align 8
  %9 = alloca ptr, align 8
  %10 = alloca ptr, align 8
  %11 = alloca ptr, align 8
  %12 = alloca ptr, align 8
  %13 = alloca ptr, align 8
  store ptr %0, ptr %8, align 8
  store ptr %1, ptr %9, align 8
  store ptr %2, ptr %10, align 8
  store ptr %3, ptr %11, align 8
  store ptr %4, ptr %12, align 8
  store ptr %5, ptr %13, align 8
  %14 = load ptr, ptr %9, align 8
  %15 = load ptr, ptr %10, align 8
  %16 = load ptr, ptr %12, align 8
  %17 = load ptr, ptr %13, align 8
  %18 = call zeroext i1 @wtap_read_bytes_or_eof(ptr noundef %14, ptr noundef %15, i32 noundef 36, ptr noundef %16, ptr noundef %17)
  br i1 %18, label %20, label %19

19:                                               ; preds = %6
  store i1 false, ptr %7, align 1
  br label %99

20:                                               ; preds = %6
  %21 = load ptr, ptr %10, align 8
  %22 = getelementptr inbounds nuw %struct.t_5VW_TimeStamped_Header, ptr %21, i32 0, i32 0
  %23 = call i32 @pletoh32(ptr noundef %22)
  %24 = load ptr, ptr %10, align 8
  %25 = getelementptr inbounds nuw %struct.t_5VW_TimeStamped_Header, ptr %24, i32 0, i32 0
  store i32 %23, ptr %25, align 4
  %26 = load ptr, ptr %10, align 8
  %27 = getelementptr inbounds nuw %struct.t_5VW_TimeStamped_Header, ptr %26, i32 0, i32 0
  %28 = load i32, ptr %27, align 4
  %29 = icmp ne i32 %28, 859041518
  br i1 %29, label %30, label %37

30:                                               ; preds = %20
  %31 = load ptr, ptr %12, align 8
  store i32 -13, ptr %31, align 4
  %32 = load ptr, ptr %10, align 8
  %33 = getelementptr inbounds nuw %struct.t_5VW_TimeStamped_Header, ptr %32, i32 0, i32 0
  %34 = load i32, ptr %33, align 4
  %35 = call noalias ptr (ptr, ptr, ...) @wmem_strdup_printf(ptr noundef null, ptr noundef @.str.5, i32 noundef %34)
  %36 = load ptr, ptr %13, align 8
  store ptr %35, ptr %36, align 8
  store i1 false, ptr %7, align 1
  br label %99

37:                                               ; preds = %20
  %38 = load ptr, ptr %10, align 8
  %39 = getelementptr inbounds nuw %struct.t_5VW_TimeStamped_Header, ptr %38, i32 0, i32 4
  %40 = call i32 @pletoh32(ptr noundef %39)
  %41 = load ptr, ptr %10, align 8
  %42 = getelementptr inbounds nuw %struct.t_5VW_TimeStamped_Header, ptr %41, i32 0, i32 4
  store i32 %40, ptr %42, align 4
  %43 = load ptr, ptr %10, align 8
  %44 = getelementptr inbounds nuw %struct.t_5VW_TimeStamped_Header, ptr %43, i32 0, i32 5
  %45 = call i32 @pletoh32(ptr noundef %44)
  %46 = load ptr, ptr %10, align 8
  %47 = getelementptr inbounds nuw %struct.t_5VW_TimeStamped_Header, ptr %46, i32 0, i32 5
  store i32 %45, ptr %47, align 4
  %48 = load ptr, ptr %10, align 8
  %49 = getelementptr inbounds nuw %struct.t_5VW_TimeStamped_Header, ptr %48, i32 0, i32 7
  %50 = call i32 @pletoh32(ptr noundef %49)
  %51 = load ptr, ptr %10, align 8
  %52 = getelementptr inbounds nuw %struct.t_5VW_TimeStamped_Header, ptr %51, i32 0, i32 7
  store i32 %50, ptr %52, align 4
  %53 = load ptr, ptr %10, align 8
  %54 = getelementptr inbounds nuw %struct.t_5VW_TimeStamped_Header, ptr %53, i32 0, i32 8
  %55 = call i32 @pletoh32(ptr noundef %54)
  %56 = load ptr, ptr %10, align 8
  %57 = getelementptr inbounds nuw %struct.t_5VW_TimeStamped_Header, ptr %56, i32 0, i32 8
  store i32 %55, ptr %57, align 4
  %58 = load ptr, ptr %11, align 8
  %59 = getelementptr inbounds nuw %struct.wtap_rec, ptr %58, i32 0, i32 0
  store i32 0, ptr %59, align 8
  %60 = call ptr @wtap_block_create(i32 noundef 5)
  %61 = load ptr, ptr %11, align 8
  %62 = getelementptr inbounds nuw %struct.wtap_rec, ptr %61, i32 0, i32 8
  store ptr %60, ptr %62, align 8
  %63 = load ptr, ptr %11, align 8
  %64 = getelementptr inbounds nuw %struct.wtap_rec, ptr %63, i32 0, i32 1
  store i32 1, ptr %64, align 4
  %65 = load ptr, ptr %10, align 8
  %66 = getelementptr inbounds nuw %struct.t_5VW_TimeStamped_Header, ptr %65, i32 0, i32 7
  %67 = load i32, ptr %66, align 4
  %68 = zext i32 %67 to i64
  %69 = load ptr, ptr %11, align 8
  %70 = getelementptr inbounds nuw %struct.wtap_rec, ptr %69, i32 0, i32 3
  %71 = getelementptr inbounds nuw %struct.nstime_t, ptr %70, i32 0, i32 0
  store i64 %68, ptr %71, align 8
  %72 = load ptr, ptr %10, align 8
  %73 = getelementptr inbounds nuw %struct.t_5VW_TimeStamped_Header, ptr %72, i32 0, i32 8
  %74 = load i32, ptr %73, align 4
  %75 = load ptr, ptr %11, align 8
  %76 = getelementptr inbounds nuw %struct.wtap_rec, ptr %75, i32 0, i32 3
  %77 = getelementptr inbounds nuw %struct.nstime_t, ptr %76, i32 0, i32 1
  store i32 %74, ptr %77, align 8
  %78 = load ptr, ptr %10, align 8
  %79 = getelementptr inbounds nuw %struct.t_5VW_TimeStamped_Header, ptr %78, i32 0, i32 5
  %80 = load i32, ptr %79, align 4
  %81 = load ptr, ptr %11, align 8
  %82 = getelementptr inbounds nuw %struct.wtap_rec, ptr %81, i32 0, i32 7
  %83 = getelementptr inbounds nuw %struct.wtap_packet_header, ptr %82, i32 0, i32 0
  store i32 %80, ptr %83, align 8
  %84 = load ptr, ptr %10, align 8
  %85 = getelementptr inbounds nuw %struct.t_5VW_TimeStamped_Header, ptr %84, i32 0, i32 5
  %86 = load i32, ptr %85, align 4
  %87 = load ptr, ptr %11, align 8
  %88 = getelementptr inbounds nuw %struct.wtap_rec, ptr %87, i32 0, i32 7
  %89 = getelementptr inbounds nuw %struct.wtap_packet_header, ptr %88, i32 0, i32 1
  store i32 %86, ptr %89, align 4
  %90 = load ptr, ptr %8, align 8
  %91 = getelementptr inbounds nuw %struct.wtap, ptr %90, i32 0, i32 19
  %92 = load i32, ptr %91, align 8
  switch i32 %92, label %98 [
    i32 1, label %93
  ]

93:                                               ; preds = %37
  %94 = load ptr, ptr %11, align 8
  %95 = getelementptr inbounds nuw %struct.wtap_rec, ptr %94, i32 0, i32 7
  %96 = getelementptr inbounds nuw %struct.wtap_packet_header, ptr %95, i32 0, i32 4
  %97 = getelementptr inbounds nuw %struct.eth_phdr, ptr %96, i32 0, i32 0
  store i32 0, ptr %97, align 8
  br label %98

98:                                               ; preds = %37, %93
  store i1 true, ptr %7, align 1
  br label %99

99:                                               ; preds = %98, %30, %19
  %100 = load i1, ptr %7, align 1
  ret i1 %100
}

; Function Attrs: null_pointer_is_valid sspstrong uwtable
define internal zeroext i1 @_5views_seek_read(ptr noundef %0, i64 noundef %1, ptr noundef %2, ptr noundef %3, ptr noundef %4) #0 {
  %6 = alloca i1, align 1
  %7 = alloca ptr, align 8
  %8 = alloca i64, align 8
  %9 = alloca ptr, align 8
  %10 = alloca ptr, align 8
  %11 = alloca ptr, align 8
  %12 = alloca %struct.t_5VW_TimeStamped_Header, align 4
  %13 = alloca i32, align 4
  store ptr %0, ptr %7, align 8
  store i64 %1, ptr %8, align 8
  store ptr %2, ptr %9, align 8
  store ptr %3, ptr %10, align 8
  store ptr %4, ptr %11, align 8
  call void @llvm.lifetime.start.p0(i64 36, ptr %12) #9
  %14 = load ptr, ptr %7, align 8
  %15 = getelementptr inbounds nuw %struct.wtap, ptr %14, i32 0, i32 1
  %16 = load ptr, ptr %15, align 8
  %17 = load i64, ptr %8, align 8
  %18 = load ptr, ptr %10, align 8
  %19 = call i64 @file_seek(ptr noundef %16, i64 noundef %17, i32 noundef 0, ptr noundef %18)
  %20 = icmp eq i64 %19, -1
  br i1 %20, label %21, label %22

21:                                               ; preds = %5
  store i1 false, ptr %6, align 1
  store i32 1, ptr %13, align 4
  br label %51

22:                                               ; preds = %5
  %23 = load ptr, ptr %7, align 8
  %24 = load ptr, ptr %7, align 8
  %25 = getelementptr inbounds nuw %struct.wtap, ptr %24, i32 0, i32 1
  %26 = load ptr, ptr %25, align 8
  %27 = load ptr, ptr %9, align 8
  %28 = load ptr, ptr %10, align 8
  %29 = load ptr, ptr %11, align 8
  %30 = call zeroext i1 @_5views_read_header(ptr noundef %23, ptr noundef %26, ptr noundef %12, ptr noundef %27, ptr noundef %28, ptr noundef %29)
  br i1 %30, label %38, label %31

31:                                               ; preds = %22
  %32 = load ptr, ptr %10, align 8
  %33 = load i32, ptr %32, align 4
  %34 = icmp eq i32 %33, 0
  br i1 %34, label %35, label %37

35:                                               ; preds = %31
  %36 = load ptr, ptr %10, align 8
  store i32 -12, ptr %36, align 4
  br label %37

37:                                               ; preds = %35, %31
  store i1 false, ptr %6, align 1
  store i32 1, ptr %13, align 4
  br label %51

38:                                               ; preds = %22
  %39 = load ptr, ptr %7, align 8
  %40 = getelementptr inbounds nuw %struct.wtap, ptr %39, i32 0, i32 1
  %41 = load ptr, ptr %40, align 8
  %42 = load ptr, ptr %9, align 8
  %43 = getelementptr inbounds nuw %struct.wtap_rec, ptr %42, i32 0, i32 11
  %44 = load ptr, ptr %9, align 8
  %45 = getelementptr inbounds nuw %struct.wtap_rec, ptr %44, i32 0, i32 7
  %46 = getelementptr inbounds nuw %struct.wtap_packet_header, ptr %45, i32 0, i32 0
  %47 = load i32, ptr %46, align 8
  %48 = load ptr, ptr %10, align 8
  %49 = load ptr, ptr %11, align 8
  %50 = call zeroext i1 @wtap_read_bytes_buffer(ptr noundef %41, ptr noundef %43, i32 noundef %47, ptr noundef %48, ptr noundef %49)
  store i1 %50, ptr %6, align 1
  store i32 1, ptr %13, align 4
  br label %51

51:                                               ; preds = %38, %37, %21
  call void @llvm.lifetime.end.p0(i64 36, ptr %12) #9
  %52 = load i1, ptr %6, align 1
  ret i1 %52
}