; Function Attrs: null_pointer_is_valid sspstrong uwtable
define internal zeroext i1 @_5views_seek_read(ptr noundef readonly captures(none) %0, i64 noundef %1, ptr noundef %2, ptr noundef %3, ptr noundef %4) #0 {
  %6 = alloca %struct.t_5VW_TimeStamped_Header, align 4
  call void @llvm.lifetime.start.p0(i64 36, ptr nonnull %6) #6
  %7 = getelementptr inbounds nuw i8, ptr %0, i64 8
  %8 = load ptr, ptr %7, align 8
  %9 = tail call i64 @file_seek(ptr noundef %8, i64 noundef %1, i32 noundef 0, ptr noundef %3)
  %10 = icmp eq i64 %9, -1
  br i1 %10, label %44, label %11

11:                                               ; preds = %5
  %12 = load ptr, ptr %7, align 8
  %13 = call zeroext i1 @wtap_read_bytes_or_eof(ptr noundef %12, ptr noundef nonnull %6, i32 noundef 36, ptr noundef %3, ptr noundef %4)
  br i1 %13, label %14, label %_5views_read_header.exit

14:                                               ; preds = %11
  %15 = load i32, ptr %6, align 4
  %.not.i = icmp eq i32 %15, 859041518
  br i1 %.not.i, label %18, label %16

16:                                               ; preds = %14
  store i32 -13, ptr %3, align 4
  %17 = call noalias ptr (ptr, ptr, ...) @wmem_strdup_printf(ptr noundef null, ptr noundef nonnull @.str.5, i32 noundef %15)
  store ptr %17, ptr %4, align 8
  br label %_5views_read_header.exit

18:                                               ; preds = %14
  %19 = getelementptr inbounds nuw i8, ptr %6, i64 16
  %20 = getelementptr inbounds nuw i8, ptr %6, i64 24
  %21 = getelementptr inbounds nuw i8, ptr %6, i64 28
  store i32 0, ptr %2, align 8
  %22 = call ptr @wtap_block_create(i32 noundef 5)
  %23 = getelementptr inbounds nuw i8, ptr %2, i64 232
  store ptr %22, ptr %23, align 8
  %24 = getelementptr inbounds nuw i8, ptr %2, i64 4
  store i32 1, ptr %24, align 4
  %25 = load i32, ptr %20, align 4
  %26 = zext i32 %25 to i64
  %27 = getelementptr inbounds nuw i8, ptr %2, i64 16
  store i64 %26, ptr %27, align 8
  %28 = load i32, ptr %21, align 4
  %29 = getelementptr inbounds nuw i8, ptr %2, i64 24
  store i32 %28, ptr %29, align 8
  %30 = load i32, ptr %19, align 4
  %31 = getelementptr inbounds nuw i8, ptr %2, i64 64
  store i32 %30, ptr %31, align 8
  %32 = getelementptr inbounds nuw i8, ptr %2, i64 68
  store i32 %30, ptr %32, align 4
  %33 = getelementptr inbounds nuw i8, ptr %0, i64 144
  %34 = load i32, ptr %33, align 8
  %cond.i = icmp eq i32 %34, 1
  br i1 %cond.i, label %35, label %40

35:                                               ; preds = %18
  %36 = getelementptr inbounds nuw i8, ptr %2, i64 80
  store i32 0, ptr %36, align 8
  br label %40

_5views_read_header.exit:                         ; preds = %16, %11
  %37 = load i32, ptr %3, align 4
  %38 = icmp eq i32 %37, 0
  br i1 %38, label %39, label %44

39:                                               ; preds = %_5views_read_header.exit
  store i32 -12, ptr %3, align 4
  br label %44

40:                                               ; preds = %18, %35
  %41 = load ptr, ptr %7, align 8
  %42 = getelementptr inbounds nuw i8, ptr %2, i64 280
  %43 = call zeroext i1 @wtap_read_bytes_buffer(ptr noundef %41, ptr noundef nonnull %42, i32 noundef %30, ptr noundef %3, ptr noundef %4)
  br label %44

44:                                               ; preds = %_5views_read_header.exit, %39, %5, %40
  %.0 = phi i1 [ %43, %40 ], [ false, %5 ], [ false, %39 ], [ false, %_5views_read_header.exit ]
  call void @llvm.lifetime.end.p0(i64 36, ptr nonnull %6) #6
  ret i1 %.0
}